target datalayout = "e-m:e-p270:32:32-p271:32:32-p272:64:64-i64:64-i128:128-f80:128-n8:16:32:64-S128"
target triple = "x86_64-pc-linux-gnu"

%struct.RecoverGlobal = type { ptr, ptr }
%struct.sqlite3_file = type { ptr }
%struct.sqlite3_io_methods = type { i32, ptr, ptr, ptr, ptr, ptr, ptr, ptr, ptr, ptr, ptr, ptr, ptr, ptr, ptr, ptr, ptr, ptr, ptr }

@recover_g = internal global %struct.RecoverGlobal zeroinitializer, align 8

; Function Attrs: nounwind uwtable
define internal i32 @recoverVfsCheckReservedLock(ptr noundef %0, ptr noundef %1) #0 {
  %3 = alloca ptr, align 8
  %4 = alloca ptr, align 8
  %5 = alloca i32, align 4
  store ptr %0, ptr %3, align 8, !tbaa !268
  store ptr %1, ptr %4, align 8, !tbaa !130
  call void @llvm.lifetime.start.p0(i64 4, ptr %5) #14
  store i32 0, ptr %5, align 4, !tbaa !3
  %6 = load ptr, ptr %3, align 8, !tbaa !268
  %7 = getelementptr inbounds nuw %struct.sqlite3_file, ptr %6, i32 0, i32 0
  %8 = load ptr, ptr %7, align 8, !tbaa !278
  %9 = icmp eq ptr %8, @recover_methods
  br i1 %9, label %10, label %24

10:                                               ; preds = %2
  %11 = load ptr, ptr @recover_g, align 8, !tbaa !1033
  %12 = load ptr, ptr %3, align 8, !tbaa !268
  %13 = getelementptr inbounds nuw %struct.sqlite3_file, ptr %12, i32 0, i32 0
  store ptr %11, ptr %13, align 8, !tbaa !278
  %14 = load ptr, ptr %3, align 8, !tbaa !268
  %15 = getelementptr inbounds nuw %struct.sqlite3_file, ptr %14, i32 0, i32 0
  %16 = load ptr, ptr %15, align 8, !tbaa !278
  %17 = getelementptr inbounds nuw %struct.sqlite3_io_methods, ptr %16, i32 0, i32 9
  %18 = load ptr, ptr %17, align 8, !tbaa !290
  %19 = load ptr, ptr %3, align 8, !tbaa !268
  %20 = load ptr, ptr %4, align 8, !tbaa !130
  %21 = call i32 %18(ptr noundef %19, ptr noundef %20)
  store i32 %21, ptr %5, align 4, !tbaa !3
  %22 = load ptr, ptr %3, align 8, !tbaa !268
  %23 = getelementptr inbounds nuw %struct.sqlite3_file, ptr %22, i32 0, i32 0
  store ptr @recover_methods, ptr %23, align 8, !tbaa !278
  br label %33

24:                                               ; preds = %2
  %25 = load ptr, ptr %3, align 8, !tbaa !268
  %26 = getelementptr inbounds nuw %struct.sqlite3_file, ptr %25, i32 0, i32 0
  %27 = load ptr, ptr %26, align 8, !tbaa !278
  %28 = getelementptr inbounds nuw %struct.sqlite3_io_methods, ptr %27, i32 0, i32 9
  %29 = load ptr, ptr %28, align 8, !tbaa !290
  %30 = load ptr, ptr %3, align 8, !tbaa !268
  %31 = load ptr, ptr %4, align 8, !tbaa !130
  %32 = call i32 %29(ptr noundef %30, ptr noundef %31)
  store i32 %32, ptr %5, align 4, !tbaa !3
  br label %33

33:                                               ; preds = %24, %10
  %34 = load i32, ptr %5, align 4, !tbaa !3
  call void @llvm.lifetime.end.p0(i64 4, ptr %5) #14
  ret i32 %34
}