; Function Attrs: nounwind uwtable
define internal i32 @recoverVfsCheckReservedLock(ptr noundef %0, ptr noundef %1) #2 {
  %3 = load ptr, ptr %0, align 8, !tbaa !310
  %4 = icmp eq ptr %3, @recover_methods
  br i1 %4, label %5, label %10

5:                                                ; preds = %2
  %6 = load ptr, ptr @recover_g.0, align 8, !tbaa !351
  store ptr %6, ptr %0, align 8, !tbaa !310
  %7 = getelementptr inbounds nuw i8, ptr %6, i64 72
  %8 = load ptr, ptr %7, align 8, !tbaa !321
  %9 = tail call i32 %8(ptr noundef nonnull %0, ptr noundef %1) #43
  store ptr @recover_methods, ptr %0, align 8, !tbaa !310
  br label %14

10:                                               ; preds = %2
  %11 = getelementptr inbounds nuw i8, ptr %3, i64 72
  %12 = load ptr, ptr %11, align 8, !tbaa !321
  %13 = tail call i32 %12(ptr noundef nonnull %0, ptr noundef %1) #43
  br label %14

14:                                               ; preds = %10, %5
  %.0 = phi i32 [ %9, %5 ], [ %13, %10 ]
  ret i32 %.0
}